target datalayout = "e-m:e-p270:32:32-p271:32:32-p272:64:64-i64:64-i128:128-f80:128-n8:16:32:64-S128"
target triple = "x86_64-pc-linux-gnu"

%"class.std::__cxx11::basic_string" = type { %"struct.std::__cxx11::basic_string<char>::_Alloc_hider", i64, %union.anon }
%"struct.std::__cxx11::basic_string<char>::_Alloc_hider" = type { ptr }
%union.anon = type { i64, [8 x i8] }
%"class.std::allocator" = type { i8 }
%struct.pos = type { [4 x [4 x i16]], [4 x i16], [4 x [4 x i8]], [4 x i32], [50 x [4 x i16]], [50 x i32], [50 x %struct.moveType], i32, i32, [4 x %struct.highCardType], [4 x %struct.highCardType] }
%struct.moveType = type { i32, i32, i32, i32 }
%struct.highCardType = type { i32, i32 }

@.str.4 = private unnamed_addr constant [2 x i8] c"\0A\00", align 1
@.str.45 = private unnamed_addr constant [17 x i8] c"Retrieved entry\0A\00", align 1

; Function Attrs: mustprogress nounwind uwtable
define linkonce_odr void @_ZNSt7__cxx1112basic_stringIcSt11char_traitsIcESaIcEE12_Alloc_hiderD2Ev(ptr noundef nonnull align 8 dereferenceable(8) %0) unnamed_addr #5 comdat align 2 {
  %2 = alloca ptr, align 8
  store ptr %0, ptr %2, align 8
  %3 = load ptr, ptr %2, align 8
  call void @_ZNSaIcED2Ev(ptr noundef nonnull align 1 dereferenceable(1) %3) #3
  ret void
}

; Function Attrs: mustprogress uwtable
define linkonce_odr void @_ZNSt7__cxx1112basic_stringIcSt11char_traitsIcESaIcEEC2IS3_EEmcRKS3_(ptr noundef nonnull align 8 dereferenceable(32) %0, i64 noundef %1, i8 noundef signext %2, ptr noundef nonnull align 1 dereferenceable(1) %3) unnamed_addr #4 comdat align 2 personality ptr @__gxx_personality_v0 {
  %5 = alloca ptr, align 8
  %6 = alloca i64, align 8
  %7 = alloca i8, align 1
  %8 = alloca ptr, align 8
  %9 = alloca ptr, align 8
  %10 = alloca i32, align 4
  store ptr %0, ptr %5, align 8
  store i64 %1, ptr %6, align 8
  store i8 %2, ptr %7, align 1
  store ptr %3, ptr %8, align 8
  %11 = load ptr, ptr %5, align 8
  %12 = getelementptr inbounds nuw %"class.std::__cxx11::basic_string", ptr %11, i32 0, i32 0
  %13 = call noundef ptr @_ZNSt7__cxx1112basic_stringIcSt11char_traitsIcESaIcEE13_M_local_dataEv(ptr noundef nonnull align 8 dereferenceable(32) %11)
  %14 = load ptr, ptr %8, align 8
  call void @_ZNSt7__cxx1112basic_stringIcSt11char_traitsIcESaIcEE12_Alloc_hiderC1EPcRKS3_(ptr noundef nonnull align 8 dereferenceable(8) %12, ptr noundef %13, ptr noundef nonnull align 1 dereferenceable(1) %14)
  %15 = load i64, ptr %6, align 8
  %16 = load i8, ptr %7, align 1
  invoke void @_ZNSt7__cxx1112basic_stringIcSt11char_traitsIcESaIcEE12_M_constructEmc(ptr noundef nonnull align 8 dereferenceable(32) %11, i64 noundef %15, i8 noundef signext %16)
          to label %17 unwind label %18

17:                                               ; preds = %4
  ret void

18:                                               ; preds = %4
  %19 = landingpad { ptr, i32 }
          cleanup
  %20 = extractvalue { ptr, i32 } %19, 0
  store ptr %20, ptr %9, align 8
  %21 = extractvalue { ptr, i32 } %19, 1
  store i32 %21, ptr %10, align 4
  call void @_ZNSt7__cxx1112basic_stringIcSt11char_traitsIcESaIcEE12_Alloc_hiderD2Ev(ptr noundef nonnull align 8 dereferenceable(8) %12) #3
  br label %22

22:                                               ; preds = %18
  %23 = load ptr, ptr %9, align 8
  %24 = load i32, ptr %10, align 4
  %25 = insertvalue { ptr, i32 } poison, ptr %23, 0
  %26 = insertvalue { ptr, i32 } %25, i32 %24, 1
  resume { ptr, i32 } %26
}

; Function Attrs: mustprogress uwtable
define void @_Z13DumpRetrievedRSt14basic_ofstreamIcSt11char_traitsIcEERK3posRK13nodeCardsTypeii(ptr noundef nonnull align 8 dereferenceable(248) %0, ptr noundef nonnull align 4 dereferenceable(1544) %1, ptr noundef nonnull align 1 dereferenceable(8) %2, i32 noundef %3, i32 noundef %4) #4 personality ptr @__gxx_personality_v0 {
  %6 = alloca ptr, align 8
  %7 = alloca ptr, align 8
  %8 = alloca ptr, align 8
  %9 = alloca i32, align 4
  %10 = alloca i32, align 4
  %11 = alloca %"class.std::__cxx11::basic_string", align 8
  %12 = alloca %"class.std::allocator", align 1
  %13 = alloca ptr, align 8
  %14 = alloca i32, align 4
  %15 = alloca %"class.std::__cxx11::basic_string", align 8
  %16 = alloca %"class.std::__cxx11::basic_string", align 8
  %17 = alloca %"class.std::__cxx11::basic_string", align 8
  store ptr %0, ptr %6, align 8
  store ptr %1, ptr %7, align 8
  store ptr %2, ptr %8, align 8
  store i32 %3, ptr %9, align 4
  store i32 %4, ptr %10, align 4
  %18 = load ptr, ptr %6, align 8
  %19 = call noundef nonnull align 8 dereferenceable(8) ptr @_ZStlsISt11char_traitsIcEERSt13basic_ostreamIcT_ES5_PKc(ptr noundef nonnull align 8 dereferenceable(8) %18, ptr noundef @.str.45)
  %20 = load ptr, ptr %6, align 8
  call void @_ZNSaIcEC1Ev(ptr noundef nonnull align 1 dereferenceable(1) %12) #3
  invoke void @_ZNSt7__cxx1112basic_stringIcSt11char_traitsIcESaIcEEC2IS3_EEmcRKS3_(ptr noundef nonnull align 8 dereferenceable(32) %11, i64 noundef 15, i8 noundef signext 45, ptr noundef nonnull align 1 dereferenceable(1) %12)
          to label %21 unwind label %49

21:                                               ; preds = %5
  %22 = invoke noundef nonnull align 8 dereferenceable(8) ptr @_ZStlsIcSt11char_traitsIcESaIcEERSt13basic_ostreamIT_T0_ES7_RKNSt7__cxx1112basic_stringIS4_S5_T1_EE(ptr noundef nonnull align 8 dereferenceable(8) %20, ptr noundef nonnull align 8 dereferenceable(32) %11)
          to label %23 unwind label %53

23:                                               ; preds = %21
  %24 = invoke noundef nonnull align 8 dereferenceable(8) ptr @_ZStlsISt11char_traitsIcEERSt13basic_ostreamIcT_ES5_PKc(ptr noundef nonnull align 8 dereferenceable(8) %22, ptr noundef @.str.4)
          to label %25 unwind label %53

25:                                               ; preds = %23
  call void @_ZNSt7__cxx1112basic_stringIcSt11char_traitsIcESaIcEED1Ev(ptr noundef nonnull align 8 dereferenceable(32) %11) #3
  call void @_ZNSaIcED1Ev(ptr noundef nonnull align 1 dereferenceable(1) %12) #3
  %26 = load ptr, ptr %6, align 8
  %27 = load ptr, ptr %7, align 8
  %28 = load i32, ptr %9, align 4
  %29 = load i32, ptr %10, align 4
  call void @_Z9PosToTextB5cxx11RK3posii(ptr dead_on_unwind writable sret(%"class.std::__cxx11::basic_string") align 8 %15, ptr noundef nonnull align 4 dereferenceable(1544) %27, i32 noundef %28, i32 noundef %29)
  %30 = invoke noundef nonnull align 8 dereferenceable(8) ptr @_ZStlsIcSt11char_traitsIcESaIcEERSt13basic_ostreamIT_T0_ES7_RKNSt7__cxx1112basic_stringIS4_S5_T1_EE(ptr noundef nonnull align 8 dereferenceable(8) %26, ptr noundef nonnull align 8 dereferenceable(32) %15)
          to label %31 unwind label %58

31:                                               ; preds = %25
  %32 = invoke noundef nonnull align 8 dereferenceable(8) ptr @_ZStlsISt11char_traitsIcEERSt13basic_ostreamIcT_ES5_PKc(ptr noundef nonnull align 8 dereferenceable(8) %30, ptr noundef @.str.4)
          to label %33 unwind label %58

33:                                               ; preds = %31
  call void @_ZNSt7__cxx1112basic_stringIcSt11char_traitsIcESaIcEED1Ev(ptr noundef nonnull align 8 dereferenceable(32) %15) #3
  %34 = load ptr, ptr %6, align 8
  %35 = load ptr, ptr %8, align 8
  call void @_Z14FullNodeToTextB5cxx11RK13nodeCardsType(ptr dead_on_unwind writable sret(%"class.std::__cxx11::basic_string") align 8 %16, ptr noundef nonnull align 1 dereferenceable(8) %35)
  %36 = invoke noundef nonnull align 8 dereferenceable(8) ptr @_ZStlsIcSt11char_traitsIcESaIcEERSt13basic_ostreamIT_T0_ES7_RKNSt7__cxx1112basic_stringIS4_S5_T1_EE(ptr noundef nonnull align 8 dereferenceable(8) %34, ptr noundef nonnull align 8 dereferenceable(32) %16)
          to label %37 unwind label %62

37:                                               ; preds = %33
  %38 = invoke noundef nonnull align 8 dereferenceable(8) ptr @_ZStlsISt11char_traitsIcEERSt13basic_ostreamIcT_ES5_PKc(ptr noundef nonnull align 8 dereferenceable(8) %36, ptr noundef @.str.4)
          to label %39 unwind label %62

39:                                               ; preds = %37
  call void @_ZNSt7__cxx1112basic_stringIcSt11char_traitsIcESaIcEED1Ev(ptr noundef nonnull align 8 dereferenceable(32) %16) #3
  %40 = load ptr, ptr %6, align 8
  %41 = load ptr, ptr %7, align 8
  %42 = getelementptr inbounds nuw %struct.pos, ptr %41, i32 0, i32 0
  %43 = getelementptr inbounds [4 x [4 x i16]], ptr %42, i64 0, i64 0
  %44 = load ptr, ptr %8, align 8
  call void @_Z14RankToDiagramsB5cxx11PA4_KtRK13nodeCardsType(ptr dead_on_unwind writable sret(%"class.std::__cxx11::basic_string") align 8 %17, ptr noundef %43, ptr noundef nonnull align 1 dereferenceable(8) %44)
  %45 = invoke noundef nonnull align 8 dereferenceable(8) ptr @_ZStlsIcSt11char_traitsIcESaIcEERSt13basic_ostreamIT_T0_ES7_RKNSt7__cxx1112basic_stringIS4_S5_T1_EE(ptr noundef nonnull align 8 dereferenceable(8) %40, ptr noundef nonnull align 8 dereferenceable(32) %17)
          to label %46 unwind label %66

46:                                               ; preds = %39
  %47 = invoke noundef nonnull align 8 dereferenceable(8) ptr @_ZStlsISt11char_traitsIcEERSt13basic_ostreamIcT_ES5_PKc(ptr noundef nonnull align 8 dereferenceable(8) %45, ptr noundef @.str.4)
          to label %48 unwind label %66

48:                                               ; preds = %46
  call void @_ZNSt7__cxx1112basic_stringIcSt11char_traitsIcESaIcEED1Ev(ptr noundef nonnull align 8 dereferenceable(32) %17) #3
  ret void

49:                                               ; preds = %5
  %50 = landingpad { ptr, i32 }
          cleanup
  %51 = extractvalue { ptr, i32 } %50, 0
  store ptr %51, ptr %13, align 8
  %52 = extractvalue { ptr, i32 } %50, 1
  store i32 %52, ptr %14, align 4
  br label %57

53:                                               ; preds = %23, %21
  %54 = landingpad { ptr, i32 }
          cleanup
  %55 = extractvalue { ptr, i32 } %54, 0
  store ptr %55, ptr %13, align 8
  %56 = extractvalue { ptr, i32 } %54, 1
  store i32 %56, ptr %14, align 4
  call void @_ZNSt7__cxx1112basic_stringIcSt11char_traitsIcESaIcEED1Ev(ptr noundef nonnull align 8 dereferenceable(32) %11) #3
  br label %57

57:                                               ; preds = %53, %49
  call void @_ZNSaIcED1Ev(ptr noundef nonnull align 1 dereferenceable(1) %12) #3
  br label %70

58:                                               ; preds = %31, %25
  %59 = landingpad { ptr, i32 }
          cleanup
  %60 = extractvalue { ptr, i32 } %59, 0
  store ptr %60, ptr %13, align 8
  %61 = extractvalue { ptr, i32 } %59, 1
  store i32 %61, ptr %14, align 4
  call void @_ZNSt7__cxx1112basic_stringIcSt11char_traitsIcESaIcEED1Ev(ptr noundef nonnull align 8 dereferenceable(32) %15) #3
  br label %70

62:                                               ; preds = %37, %33
  %63 = landingpad { ptr, i32 }
          cleanup
  %64 = extractvalue { ptr, i32 } %63, 0
  store ptr %64, ptr %13, align 8
  %65 = extractvalue { ptr, i32 } %63, 1
  store i32 %65, ptr %14, align 4
  call void @_ZNSt7__cxx1112basic_stringIcSt11char_traitsIcESaIcEED1Ev(ptr noundef nonnull align 8 dereferenceable(32) %16) #3
  br label %70

66:                                               ; preds = %46, %39
  %67 = landingpad { ptr, i32 }
          cleanup
  %68 = extractvalue { ptr, i32 } %67, 0
  store ptr %68, ptr %13, align 8
  %69 = extractvalue { ptr, i32 } %67, 1
  store i32 %69, ptr %14, align 4
  call void @_ZNSt7__cxx1112basic_stringIcSt11char_traitsIcESaIcEED1Ev(ptr noundef nonnull align 8 dereferenceable(32) %17) #3
  br label %70

70:                                               ; preds = %66, %62, %58, %57
  %71 = load ptr, ptr %13, align 8
  %72 = load i32, ptr %14, align 4
  %73 = insertvalue { ptr, i32 } poison, ptr %71, 0
  %74 = insertvalue { ptr, i32 } %73, i32 %72, 1
  resume { ptr, i32 } %74
}